; Function Attrs: mustprogress nofree nounwind willreturn uwtable
define noundef range(i32 -1, 1) i32 @_ZN3zmq5msg_t9set_groupEPKc(ptr noundef nonnull align 8 dereferenceable(64) %0, ptr noundef readonly captures(none) %1) local_unnamed_addr #13 align 2 personality ptr @__gxx_personality_v0 {
  %3 = tail call i64 @strnlen(ptr noundef nonnull dereferenceable(1) %1, i64 noundef 255) #26
  %4 = icmp ugt i64 %3, 255
  br i1 %4, label %5, label %7

5:                                                ; preds = %2
  %6 = tail call ptr @__errno_location() #22
  store i32 22, ptr %6, align 4, !tbaa !22
  br label %_ZN3zmq5msg_t9set_groupEPKcm.exit

7:                                                ; preds = %2
  %8 = icmp samesign ugt i64 %3, 14
  br i1 %8, label %9, label %16

9:                                                ; preds = %7
  %10 = getelementptr inbounds nuw i8, ptr %0, i64 48
  store i8 1, ptr %10, align 8, !tbaa !3
  %11 = tail call noalias dereferenceable_or_null(264) ptr @malloc(i64 noundef 264) #21
  %12 = getelementptr inbounds nuw i8, ptr %0, i64 56
  store ptr %11, ptr %12, align 8, !tbaa !3
  %13 = getelementptr inbounds nuw i8, ptr %11, i64 256
  store i32 0, ptr %13, align 4, !tbaa !20
  store atomic i32 1, ptr %13 seq_cst, align 4
  %14 = tail call ptr @strncpy(ptr noundef %11, ptr noundef nonnull readonly %1, i64 noundef %3) #23
  %15 = getelementptr inbounds nuw [256 x i8], ptr %11, i64 0, i64 %3
  store i8 0, ptr %15, align 1, !tbaa !3
  br label %_ZN3zmq5msg_t9set_groupEPKcm.exit

16:                                               ; preds = %7
  %17 = getelementptr inbounds nuw i8, ptr %0, i64 49
  %18 = tail call ptr @strncpy(ptr noundef nonnull %17, ptr noundef nonnull readonly %1, i64 noundef %3) #23
  %19 = getelementptr inbounds nuw [15 x i8], ptr %17, i64 0, i64 %3
  store i8 0, ptr %19, align 1, !tbaa !3
  br label %_ZN3zmq5msg_t9set_groupEPKcm.exit

_ZN3zmq5msg_t9set_groupEPKcm.exit:                ; preds = %5, %9, %16
  %.0.i = phi i32 [ -1, %5 ], [ 0, %16 ], [ 0, %9 ]
  ret i32 %.0.i
}